target datalayout = "e-m:e-p270:32:32-p271:32:32-p272:64:64-i64:64-i128:128-f80:128-n8:16:32:64-S128"
target triple = "x86_64-pc-linux-gnu"

%struct.AVFilterContext = type { ptr, ptr, ptr, ptr, ptr, i32, ptr, ptr, i32, ptr, ptr, i32, i32, ptr, ptr, ptr, ptr, i32, ptr, i32, i32 }
%struct.AudioEchoContext = type { ptr, float, float, ptr, ptr, ptr, ptr, i32, i32, ptr, i32, i32, ptr, i32, i64, ptr }
%struct.AVFilterLink = type { ptr, ptr, ptr, ptr, i32, i32, i32, i32, %struct.AVRational, i32, i32, i32, %struct.AVChannelLayout, %struct.AVRational, ptr, i32, %struct.AVFilterFormatsConfig, %struct.AVFilterFormatsConfig }
%struct.AVChannelLayout = type { i32, i32, %union.anon.1, ptr }
%union.anon.1 = type { i64 }
%struct.AVRational = type { i32, i32 }
%struct.AVFilterFormatsConfig = type { ptr, ptr, ptr, ptr, ptr }

@.str.3 = private unnamed_addr constant [42 x i8] c"Nothing to echo - missing delay samples.\0A\00", align 1
@.str.4 = private unnamed_addr constant [44 x i8] c"out_gain %f can cause saturation of output\0A\00", align 1

; Function Attrs: nounwind uwtable
define internal i32 @config_output(ptr noundef %0) #1 {
  %2 = alloca i32, align 4
  %3 = alloca ptr, align 8
  %4 = alloca ptr, align 8
  %5 = alloca ptr, align 8
  %6 = alloca float, align 4
  %7 = alloca i32, align 4
  %8 = alloca i32, align 4
  store ptr %0, ptr %3, align 8, !tbaa !43
  call void @llvm.lifetime.start.p0(i64 8, ptr %4) #8
  %9 = load ptr, ptr %3, align 8, !tbaa !43
  %10 = getelementptr inbounds nuw %struct.AVFilterLink, ptr %9, i32 0, i32 0
  %11 = load ptr, ptr %10, align 8, !tbaa !50
  store ptr %11, ptr %4, align 8, !tbaa !4
  call void @llvm.lifetime.start.p0(i64 8, ptr %5) #8
  %12 = load ptr, ptr %4, align 8, !tbaa !4
  %13 = getelementptr inbounds nuw %struct.AVFilterContext, ptr %12, i32 0, i32 9
  %14 = load ptr, ptr %13, align 8, !tbaa !9
  store ptr %14, ptr %5, align 8, !tbaa !22
  call void @llvm.lifetime.start.p0(i64 4, ptr %6) #8
  store float 1.000000e+00, ptr %6, align 4, !tbaa !37
  call void @llvm.lifetime.start.p0(i64 4, ptr %7) #8
  store i32 0, ptr %7, align 4, !tbaa !33
  br label %15

15:                                               ; preds = %79, %1
  %16 = load i32, ptr %7, align 4, !tbaa !33
  %17 = load ptr, ptr %5, align 8, !tbaa !22
  %18 = getelementptr inbounds nuw %struct.AudioEchoContext, ptr %17, i32 0, i32 7
  %19 = load i32, ptr %18, align 8, !tbaa !35
  %20 = icmp slt i32 %16, %19
  br i1 %20, label %21, label %82

21:                                               ; preds = %15
  %22 = load ptr, ptr %5, align 8, !tbaa !22
  %23 = getelementptr inbounds nuw %struct.AudioEchoContext, ptr %22, i32 0, i32 5
  %24 = load ptr, ptr %23, align 8, !tbaa !32
  %25 = load i32, ptr %7, align 4, !tbaa !33
  %26 = sext i32 %25 to i64
  %27 = getelementptr inbounds float, ptr %24, i64 %26
  %28 = load float, ptr %27, align 4, !tbaa !37
  %29 = load ptr, ptr %3, align 8, !tbaa !43
  %30 = getelementptr inbounds nuw %struct.AVFilterLink, ptr %29, i32 0, i32 11
  %31 = load i32, ptr %30, align 8, !tbaa !58
  %32 = sitofp i32 %31 to float
  %33 = fmul nsz float %28, %32
  %34 = fpext nsz float %33 to double
  %35 = fdiv nsz double %34, 1.000000e+03
  %36 = fptosi double %35 to i32
  %37 = load ptr, ptr %5, align 8, !tbaa !22
  %38 = getelementptr inbounds nuw %struct.AudioEchoContext, ptr %37, i32 0, i32 12
  %39 = load ptr, ptr %38, align 8, !tbaa !36
  %40 = load i32, ptr %7, align 4, !tbaa !33
  %41 = sext i32 %40 to i64
  %42 = getelementptr inbounds i32, ptr %39, i64 %41
  store i32 %36, ptr %42, align 4, !tbaa !33
  %43 = load ptr, ptr %5, align 8, !tbaa !22
  %44 = getelementptr inbounds nuw %struct.AudioEchoContext, ptr %43, i32 0, i32 10
  %45 = load i32, ptr %44, align 8, !tbaa !59
  %46 = load ptr, ptr %5, align 8, !tbaa !22
  %47 = getelementptr inbounds nuw %struct.AudioEchoContext, ptr %46, i32 0, i32 12
  %48 = load ptr, ptr %47, align 8, !tbaa !36
  %49 = load i32, ptr %7, align 4, !tbaa !33
  %50 = sext i32 %49 to i64
  %51 = getelementptr inbounds i32, ptr %48, i64 %50
  %52 = load i32, ptr %51, align 4, !tbaa !33
  %53 = icmp sgt i32 %45, %52
  br i1 %53, label %54, label %58

54:                                               ; preds = %21
  %55 = load ptr, ptr %5, align 8, !tbaa !22
  %56 = getelementptr inbounds nuw %struct.AudioEchoContext, ptr %55, i32 0, i32 10
  %57 = load i32, ptr %56, align 8, !tbaa !59
  br label %66

58:                                               ; preds = %21
  %59 = load ptr, ptr %5, align 8, !tbaa !22
  %60 = getelementptr inbounds nuw %struct.AudioEchoContext, ptr %59, i32 0, i32 12
  %61 = load ptr, ptr %60, align 8, !tbaa !36
  %62 = load i32, ptr %7, align 4, !tbaa !33
  %63 = sext i32 %62 to i64
  %64 = getelementptr inbounds i32, ptr %61, i64 %63
  %65 = load i32, ptr %64, align 4, !tbaa !33
  br label %66

66:                                               ; preds = %58, %54
  %67 = phi i32 [ %57, %54 ], [ %65, %58 ]
  %68 = load ptr, ptr %5, align 8, !tbaa !22
  %69 = getelementptr inbounds nuw %struct.AudioEchoContext, ptr %68, i32 0, i32 10
  store i32 %67, ptr %69, align 8, !tbaa !59
  %70 = load ptr, ptr %5, align 8, !tbaa !22
  %71 = getelementptr inbounds nuw %struct.AudioEchoContext, ptr %70, i32 0, i32 6
  %72 = load ptr, ptr %71, align 8, !tbaa !34
  %73 = load i32, ptr %7, align 4, !tbaa !33
  %74 = sext i32 %73 to i64
  %75 = getelementptr inbounds float, ptr %72, i64 %74
  %76 = load float, ptr %75, align 4, !tbaa !37
  %77 = load float, ptr %6, align 4, !tbaa !37
  %78 = fadd nsz float %77, %76
  store float %78, ptr %6, align 4, !tbaa !37
  br label %79

79:                                               ; preds = %66
  %80 = load i32, ptr %7, align 4, !tbaa !33
  %81 = add nsw i32 %80, 1
  store i32 %81, ptr %7, align 4, !tbaa !33
  br label %15, !llvm.loop !60

82:                                               ; preds = %15
  %83 = load ptr, ptr %5, align 8, !tbaa !22
  %84 = getelementptr inbounds nuw %struct.AudioEchoContext, ptr %83, i32 0, i32 10
  %85 = load i32, ptr %84, align 8, !tbaa !59
  %86 = icmp sle i32 %85, 0
  br i1 %86, label %87, label %89

87:                                               ; preds = %82
  %88 = load ptr, ptr %4, align 8, !tbaa !4
  call void (ptr, i32, ptr, ...) @av_log(ptr noundef %88, i32 noundef 16, ptr noundef @.str.3)
  store i32 -22, ptr %2, align 4
  store i32 1, ptr %8, align 4
  br label %154

89:                                               ; preds = %82
  %90 = load ptr, ptr %5, align 8, !tbaa !22
  %91 = getelementptr inbounds nuw %struct.AudioEchoContext, ptr %90, i32 0, i32 10
  %92 = load i32, ptr %91, align 8, !tbaa !59
  %93 = load ptr, ptr %5, align 8, !tbaa !22
  %94 = getelementptr inbounds nuw %struct.AudioEchoContext, ptr %93, i32 0, i32 11
  store i32 %92, ptr %94, align 4, !tbaa !49
  %95 = load float, ptr %6, align 4, !tbaa !37
  %96 = load ptr, ptr %5, align 8, !tbaa !22
  %97 = getelementptr inbounds nuw %struct.AudioEchoContext, ptr %96, i32 0, i32 1
  %98 = load float, ptr %97, align 8, !tbaa !61
  %99 = fmul nsz float %95, %98
  %100 = load ptr, ptr %5, align 8, !tbaa !22
  %101 = getelementptr inbounds nuw %struct.AudioEchoContext, ptr %100, i32 0, i32 2
  %102 = load float, ptr %101, align 4, !tbaa !62
  %103 = fmul nsz float %99, %102
  %104 = fpext nsz float %103 to double
  %105 = fcmp nsz ogt double %104, 1.000000e+00
  br i1 %105, label %106, label %112

106:                                              ; preds = %89
  %107 = load ptr, ptr %4, align 8, !tbaa !4
  %108 = load ptr, ptr %5, align 8, !tbaa !22
  %109 = getelementptr inbounds nuw %struct.AudioEchoContext, ptr %108, i32 0, i32 2
  %110 = load float, ptr %109, align 4, !tbaa !62
  %111 = fpext nsz float %110 to double
  call void (ptr, i32, ptr, ...) @av_log(ptr noundef %107, i32 noundef 24, ptr noundef @.str.4, double noundef %111)
  br label %112

112:                                              ; preds = %106, %89
  %113 = load ptr, ptr %3, align 8, !tbaa !43
  %114 = getelementptr inbounds nuw %struct.AVFilterLink, ptr %113, i32 0, i32 5
  %115 = load i32, ptr %114, align 4, !tbaa !63
  switch i32 %115, label %128 [
    i32 9, label %116
    i32 8, label %119
    i32 6, label %122
    i32 7, label %125
  ]

116:                                              ; preds = %112
  %117 = load ptr, ptr %5, align 8, !tbaa !22
  %118 = getelementptr inbounds nuw %struct.AudioEchoContext, ptr %117, i32 0, i32 15
  store ptr @echo_samples_dblp, ptr %118, align 8, !tbaa !64
  br label %128

119:                                              ; preds = %112
  %120 = load ptr, ptr %5, align 8, !tbaa !22
  %121 = getelementptr inbounds nuw %struct.AudioEchoContext, ptr %120, i32 0, i32 15
  store ptr @echo_samples_fltp, ptr %121, align 8, !tbaa !64
  br label %128

122:                                              ; preds = %112
  %123 = load ptr, ptr %5, align 8, !tbaa !22
  %124 = getelementptr inbounds nuw %struct.AudioEchoContext, ptr %123, i32 0, i32 15
  store ptr @echo_samples_s16p, ptr %124, align 8, !tbaa !64
  br label %128

125:                                              ; preds = %112
  %126 = load ptr, ptr %5, align 8, !tbaa !22
  %127 = getelementptr inbounds nuw %struct.AudioEchoContext, ptr %126, i32 0, i32 15
  store ptr @echo_samples_s32p, ptr %127, align 8, !tbaa !64
  br label %128

128:                                              ; preds = %112, %125, %122, %119, %116
  %129 = load ptr, ptr %5, align 8, !tbaa !22
  %130 = getelementptr inbounds nuw %struct.AudioEchoContext, ptr %129, i32 0, i32 9
  %131 = load ptr, ptr %130, align 8, !tbaa !41
  %132 = icmp ne ptr %131, null
  br i1 %132, label %133, label %138

133:                                              ; preds = %128
  %134 = load ptr, ptr %5, align 8, !tbaa !22
  %135 = getelementptr inbounds nuw %struct.AudioEchoContext, ptr %134, i32 0, i32 9
  %136 = load ptr, ptr %135, align 8, !tbaa !41
  %137 = getelementptr inbounds ptr, ptr %136, i64 0
  call void @av_freep(ptr noundef %137)
  br label %138

138:                                              ; preds = %133, %128
  %139 = load ptr, ptr %5, align 8, !tbaa !22
  %140 = getelementptr inbounds nuw %struct.AudioEchoContext, ptr %139, i32 0, i32 9
  call void @av_freep(ptr noundef %140)
  %141 = load ptr, ptr %5, align 8, !tbaa !22
  %142 = getelementptr inbounds nuw %struct.AudioEchoContext, ptr %141, i32 0, i32 9
  %143 = load ptr, ptr %3, align 8, !tbaa !43
  %144 = getelementptr inbounds nuw %struct.AVFilterLink, ptr %143, i32 0, i32 12
  %145 = getelementptr inbounds nuw %struct.AVChannelLayout, ptr %144, i32 0, i32 1
  %146 = load i32, ptr %145, align 4, !tbaa !65
  %147 = load ptr, ptr %5, align 8, !tbaa !22
  %148 = getelementptr inbounds nuw %struct.AudioEchoContext, ptr %147, i32 0, i32 10
  %149 = load i32, ptr %148, align 8, !tbaa !59
  %150 = load ptr, ptr %3, align 8, !tbaa !43
  %151 = getelementptr inbounds nuw %struct.AVFilterLink, ptr %150, i32 0, i32 5
  %152 = load i32, ptr %151, align 4, !tbaa !63
  %153 = call i32 @av_samples_alloc_array_and_samples(ptr noundef %142, ptr noundef null, i32 noundef %146, i32 noundef %149, i32 noundef %152, i32 noundef 0)
  store i32 %153, ptr %2, align 4
  store i32 1, ptr %8, align 4
  br label %154

154:                                              ; preds = %138, %87
  call void @llvm.lifetime.end.p0(i64 4, ptr %7) #8
  call void @llvm.lifetime.end.p0(i64 4, ptr %6) #8
  call void @llvm.lifetime.end.p0(i64 8, ptr %5) #8
  call void @llvm.lifetime.end.p0(i64 8, ptr %4) #8
  %155 = load i32, ptr %2, align 4
  ret i32 %155
}