; Function Attrs: nounwind uwtable
define internal i32 @config_output(ptr noundef readonly captures(none) %0) #1 {
  %2 = load ptr, ptr %0, align 8, !tbaa !66
  %3 = getelementptr inbounds nuw i8, ptr %2, i64 72
  %4 = load ptr, ptr %3, align 8, !tbaa !4
  %5 = getelementptr inbounds nuw i8, ptr %4, i64 48
  %6 = load i32, ptr %5, align 8, !tbaa !34
  %7 = icmp sgt i32 %6, 0
  br i1 %7, label %.lr.ph, label %.._crit_edge_crit_edge

.._crit_edge_crit_edge:                           ; preds = %1
  %.phi.trans.insert = getelementptr inbounds nuw i8, ptr %4, i64 64
  %.pre = load i32, ptr %.phi.trans.insert, align 8, !tbaa !68
  br label %._crit_edge

.lr.ph:                                           ; preds = %1
  %8 = getelementptr inbounds nuw i8, ptr %4, i64 32
  %9 = load ptr, ptr %8, align 8, !tbaa !31
  %10 = getelementptr inbounds nuw i8, ptr %0, i64 64
  %11 = getelementptr inbounds nuw i8, ptr %4, i64 72
  %12 = load ptr, ptr %11, align 8, !tbaa !35
  %13 = getelementptr inbounds nuw i8, ptr %4, i64 64
  %14 = getelementptr inbounds nuw i8, ptr %4, i64 40
  %15 = load ptr, ptr %14, align 8, !tbaa !32
  br label %16

16:                                               ; preds = %.lr.ph, %16
  %indvars.iv = phi i64 [ 0, %.lr.ph ], [ %indvars.iv.next, %16 ]
  %.04147 = phi float [ 1.000000e+00, %.lr.ph ], [ %29, %16 ]
  %17 = getelementptr inbounds nuw float, ptr %9, i64 %indvars.iv
  %18 = load float, ptr %17, align 4, !tbaa !36
  %19 = load i32, ptr %10, align 8, !tbaa !63
  %20 = sitofp i32 %19 to float
  %21 = fmul nsz float %18, %20
  %22 = fpext nsz float %21 to double
  %23 = fdiv nsz double %22, 1.000000e+03
  %24 = fptosi double %23 to i32
  %25 = getelementptr inbounds nuw i32, ptr %12, i64 %indvars.iv
  store i32 %24, ptr %25, align 4, !tbaa !33
  %26 = load i32, ptr %13, align 8, !tbaa !68
  %. = tail call i32 @llvm.smax.i32(i32 %26, i32 %24)
  store i32 %., ptr %13, align 8, !tbaa !68
  %27 = getelementptr inbounds nuw float, ptr %15, i64 %indvars.iv
  %28 = load float, ptr %27, align 4, !tbaa !36
  %29 = fadd nsz float %.04147, %28
  %indvars.iv.next = add nuw nsw i64 %indvars.iv, 1
  %30 = load i32, ptr %5, align 8, !tbaa !34
  %31 = sext i32 %30 to i64
  %32 = icmp slt i64 %indvars.iv.next, %31
  br i1 %32, label %16, label %._crit_edge, !llvm.loop !69

._crit_edge:                                      ; preds = %16, %.._crit_edge_crit_edge
  %33 = phi i32 [ %.pre, %.._crit_edge_crit_edge ], [ %., %16 ]
  %.041.lcssa = phi float [ 1.000000e+00, %.._crit_edge_crit_edge ], [ %29, %16 ]
  %34 = getelementptr inbounds nuw i8, ptr %4, i64 64
  %35 = icmp slt i32 %33, 1
  br i1 %35, label %36, label %37

36:                                               ; preds = %._crit_edge
  tail call void (ptr, i32, ptr, ...) @av_log(ptr noundef nonnull %2, i32 noundef 16, ptr noundef nonnull @.str.3) #8
  br label %64

37:                                               ; preds = %._crit_edge
  %38 = getelementptr inbounds nuw i8, ptr %4, i64 68
  store i32 %33, ptr %38, align 4, !tbaa !65
  %39 = getelementptr inbounds nuw i8, ptr %4, i64 8
  %40 = load float, ptr %39, align 8, !tbaa !70
  %41 = fmul nsz float %.041.lcssa, %40
  %42 = getelementptr inbounds nuw i8, ptr %4, i64 12
  %43 = load float, ptr %42, align 4, !tbaa !71
  %44 = fmul nsz float %41, %43
  %45 = fcmp nsz ogt float %44, 1.000000e+00
  br i1 %45, label %46, label %48

46:                                               ; preds = %37
  %47 = fpext nsz float %43 to double
  tail call void (ptr, i32, ptr, ...) @av_log(ptr noundef nonnull %2, i32 noundef 24, ptr noundef nonnull @.str.4, double noundef %47) #8
  br label %48

48:                                               ; preds = %46, %37
  %49 = getelementptr inbounds nuw i8, ptr %0, i64 36
  %50 = load i32, ptr %49, align 4, !tbaa !72
  %switch.tableidx = add i32 %50, -6
  %51 = icmp ult i32 %switch.tableidx, 4
  br i1 %51, label %switch.lookup, label %54

switch.lookup:                                    ; preds = %48
  %52 = zext nneg i32 %switch.tableidx to i64
  %switch.gep = getelementptr inbounds nuw [4 x ptr], ptr @switch.table.config_output, i64 0, i64 %52
  %switch.load = load ptr, ptr %switch.gep, align 8
  %53 = getelementptr inbounds nuw i8, ptr %4, i64 96
  store ptr %switch.load, ptr %53, align 8, !tbaa !59
  br label %54

54:                                               ; preds = %48, %switch.lookup
  %55 = getelementptr inbounds nuw i8, ptr %4, i64 56
  %56 = load ptr, ptr %55, align 8, !tbaa !39
  %.not = icmp eq ptr %56, null
  br i1 %.not, label %58, label %57

57:                                               ; preds = %54
  tail call void @av_freep(ptr noundef nonnull %56) #8
  br label %58

58:                                               ; preds = %57, %54
  tail call void @av_freep(ptr noundef nonnull %55) #8
  %59 = getelementptr inbounds nuw i8, ptr %0, i64 76
  %60 = load i32, ptr %59, align 4, !tbaa !61
  %61 = load i32, ptr %34, align 8, !tbaa !68
  %62 = load i32, ptr %49, align 4, !tbaa !72
  %63 = tail call i32 @av_samples_alloc_array_and_samples(ptr noundef nonnull %55, ptr noundef null, i32 noundef %60, i32 noundef %61, i32 noundef %62, i32 noundef 0) #8
  br label %64

64:                                               ; preds = %58, %36
  %.042 = phi i32 [ -22, %36 ], [ %63, %58 ]
  ret i32 %.042
}